target datalayout = "e-m:e-p270:32:32-p271:32:32-p272:64:64-i64:64-i128:128-f80:128-n8:16:32:64-S128"
target triple = "x86_64-pc-linux-gnu"

; Function Attrs: nounwind uwtable
define ptr @OCSP_archive_cutoff_new(ptr noundef %0) #0 {
  %2 = alloca ptr, align 8
  %3 = alloca ptr, align 8
  %4 = alloca ptr, align 8
  store ptr %0, ptr %2, align 8, !tbaa !47
  call void @llvm.lifetime.start.p0(i64 8, ptr %3) #5
  store ptr null, ptr %3, align 8, !tbaa !25
  call void @llvm.lifetime.start.p0(i64 8, ptr %4) #5
  store ptr null, ptr %4, align 8, !tbaa !68
  %5 = call ptr @ASN1_GENERALIZEDTIME_new()
  store ptr %5, ptr %4, align 8, !tbaa !68
  %6 = icmp eq ptr %5, null
  br i1 %6, label %7, label %8

7:                                                ; preds = %1
  br label %17

8:                                                ; preds = %1
  %9 = load ptr, ptr %4, align 8, !tbaa !68
  %10 = load ptr, ptr %2, align 8, !tbaa !47
  %11 = call i32 @ASN1_GENERALIZEDTIME_set_string(ptr noundef %9, ptr noundef %10)
  %12 = icmp ne i32 %11, 0
  br i1 %12, label %14, label %13

13:                                               ; preds = %8
  br label %17

14:                                               ; preds = %8
  %15 = load ptr, ptr %4, align 8, !tbaa !68
  %16 = call ptr @X509V3_EXT_i2d(i32 noundef 370, i32 noundef 0, ptr noundef %15)
  store ptr %16, ptr %3, align 8, !tbaa !25
  br label %17

17:                                               ; preds = %14, %13, %7
  %18 = load ptr, ptr %4, align 8, !tbaa !68
  call void @ASN1_GENERALIZEDTIME_free(ptr noundef %18)
  %19 = load ptr, ptr %3, align 8, !tbaa !25
  call void @llvm.lifetime.end.p0(i64 8, ptr %4) #5
  call void @llvm.lifetime.end.p0(i64 8, ptr %3) #5
  ret ptr %19
}