; Function Attrs: nounwind uwtable
define ptr @OCSP_archive_cutoff_new(ptr noundef %0) local_unnamed_addr #0 {
  %2 = tail call ptr @ASN1_GENERALIZEDTIME_new() #4
  %3 = icmp eq ptr %2, null
  br i1 %3, label %8, label %4

4:                                                ; preds = %1
  %5 = tail call i32 @ASN1_GENERALIZEDTIME_set_string(ptr noundef nonnull %2, ptr noundef %0) #4
  %.not = icmp eq i32 %5, 0
  br i1 %.not, label %8, label %6

6:                                                ; preds = %4
  %7 = tail call ptr @X509V3_EXT_i2d(i32 noundef 370, i32 noundef 0, ptr noundef nonnull %2) #4
  br label %8

8:                                                ; preds = %4, %1, %6
  %.0 = phi ptr [ null, %1 ], [ %7, %6 ], [ null, %4 ]
  tail call void @ASN1_GENERALIZEDTIME_free(ptr noundef %2) #4
  ret ptr %.0
}